; ModuleID = '21/1103.c'
source_filename = "21/1103.c"
target datalayout = "e-m:e-p270:32:32-p271:32:32-p272:64:64-i64:64-f80:128-n8:16:32:64-S128"
target triple = "x86_64-pc-linux-gnu"

@.str = private unnamed_addr constant [3 x i8] c"%d\00", align 1
@.str.1 = private unnamed_addr constant [4 x i8] c",%d\00", align 1

; Function Attrs: noinline nounwind uwtable
define dso_local i32 @main() #0 {
  %1 = alloca i32, align 4
  %2 = alloca i32, align 4
  %3 = alloca i32, align 4
  %4 = alloca i32, align 4
  %5 = alloca i32, align 4
  %6 = alloca [310 x i32], align 16
  %7 = alloca [310 x i32], align 16
  %8 = alloca double, align 8
  %9 = alloca double, align 8
  %10 = alloca double, align 8
  %11 = alloca double, align 8
  %12 = alloca i32, align 4
  store i32 0, i32* %1, align 4
  store i32 0, i32* %4, align 4
  %13 = bitcast [310 x i32]* %6 to i8*
  call void @llvm.memset.p0i8.i64(i8* align 16 %13, i8 0, i64 1240, i1 false)
  %14 = bitcast [310 x i32]* %7 to i8*
  call void @llvm.memset.p0i8.i64(i8* align 16 %14, i8 0, i64 1240, i1 false)
  store double 0.000000e+00, double* %8, align 8
  store double 0.000000e+00, double* %9, align 8
  store double 0.000000e+00, double* %10, align 8
  %15 = call i32 (i8*, ...) @__isoc99_scanf(i8* getelementptr inbounds ([3 x i8], [3 x i8]* @.str, i64 0, i64 0), i32* %2)
  store i32 0, i32* %3, align 4
  br label %16

16:                                               ; preds = %32, %0
  %17 = load i32, i32* %3, align 4
  %18 = load i32, i32* %2, align 4
  %19 = icmp slt i32 %17, %18
  br i1 %19, label %20, label %35

20:                                               ; preds = %16
  %21 = load i32, i32* %3, align 4
  %22 = sext i32 %21 to i64
  %23 = getelementptr inbounds [310 x i32], [310 x i32]* %6, i64 0, i64 %22
  %24 = call i32 (i8*, ...) @__isoc99_scanf(i8* getelementptr inbounds ([3 x i8], [3 x i8]* @.str, i64 0, i64 0), i32* %23)
  %25 = load i32, i32* %3, align 4
  %26 = sext i32 %25 to i64
  %27 = getelementptr inbounds [310 x i32], [310 x i32]* %6, i64 0, i64 %26
  %28 = load i32, i32* %27, align 4
  %29 = sitofp i32 %28 to double
  %30 = load double, double* %8, align 8
  %31 = fadd double %30, %29
  store double %31, double* %8, align 8
  br label %32

32:                                               ; preds = %20
  %33 = load i32, i32* %3, align 4
  %34 = add nsw i32 %33, 1
  store i32 %34, i32* %3, align 4
  br label %16

35:                                               ; preds = %16
  %36 = load double, double* %8, align 8
  %37 = load i32, i32* %2, align 4
  %38 = sitofp i32 %37 to double
  %39 = fdiv double %36, %38
  store double %39, double* %9, align 8
  store i32 0, i32* %3, align 4
  br label %40

40:                                               ; preds = %59, %35
  %41 = load i32, i32* %3, align 4
  %42 = load i32, i32* %2, align 4
  %43 = icmp slt i32 %41, %42
  br i1 %43, label %44, label %62

44:                                               ; preds = %40
  %45 = load i32, i32* %3, align 4
  %46 = sext i32 %45 to i64
  %47 = getelementptr inbounds [310 x i32], [310 x i32]* %6, i64 0, i64 %46
  %48 = load i32, i32* %47, align 4
  %49 = sitofp i32 %48 to double
  %50 = load double, double* %9, align 8
  %51 = fsub double %49, %50
  %52 = call double @llvm.fabs.f64(double %51)
  store double %52, double* %11, align 8
  %53 = load double, double* %11, align 8
  %54 = load double, double* %10, align 8
  %55 = fcmp ogt double %53, %54
  br i1 %55, label %56, label %58

56:                                               ; preds = %44
  %57 = load double, double* %11, align 8
  store double %57, double* %10, align 8
  br label %58

58:                                               ; preds = %56, %44
  br label %59

59:                                               ; preds = %58
  %60 = load i32, i32* %3, align 4
  %61 = add nsw i32 %60, 1
  store i32 %61, i32* %3, align 4
  br label %40

62:                                               ; preds = %40
  store i32 0, i32* %3, align 4
  br label %63

63:                                               ; preds = %90, %62
  %64 = load i32, i32* %3, align 4
  %65 = load i32, i32* %2, align 4
  %66 = icmp slt i32 %64, %65
  br i1 %66, label %67, label %93

67:                                               ; preds = %63
  %68 = load double, double* %10, align 8
  %69 = load i32, i32* %3, align 4
  %70 = sext i32 %69 to i64
  %71 = getelementptr inbounds [310 x i32], [310 x i32]* %6, i64 0, i64 %70
  %72 = load i32, i32* %71, align 4
  %73 = sitofp i32 %72 to double
  %74 = load double, double* %9, align 8
  %75 = fsub double %73, %74
  %76 = call double @llvm.fabs.f64(double %75)
  %77 = fsub double %68, %76
  %78 = fcmp olt double %77, 1.000000e-05
  br i1 %78, label %79, label %89

79:                                               ; preds = %67
  %80 = load i32, i32* %3, align 4
  %81 = sext i32 %80 to i64
  %82 = getelementptr inbounds [310 x i32], [310 x i32]* %6, i64 0, i64 %81
  %83 = load i32, i32* %82, align 4
  %84 = load i32, i32* %4, align 4
  %85 = sext i32 %84 to i64
  %86 = getelementptr inbounds [310 x i32], [310 x i32]* %7, i64 0, i64 %85
  store i32 %83, i32* %86, align 4
  %87 = load i32, i32* %4, align 4
  %88 = add nsw i32 %87, 1
  store i32 %88, i32* %4, align 4
  br label %89

89:                                               ; preds = %79, %67
  br label %90

90:                                               ; preds = %89
  %91 = load i32, i32* %3, align 4
  %92 = add nsw i32 %91, 1
  store i32 %92, i32* %3, align 4
  br label %63

93:                                               ; preds = %63
  store i32 0, i32* %3, align 4
  br label %94

94:                                               ; preds = %139, %93
  %95 = load i32, i32* %3, align 4
  %96 = load i32, i32* %4, align 4
  %97 = sub nsw i32 %96, 1
  %98 = icmp slt i32 %95, %97
  br i1 %98, label %99, label %142

99:                                               ; preds = %94
  store i32 0, i32* %5, align 4
  br label %100

100:                                              ; preds = %135, %99
  %101 = load i32, i32* %5, align 4
  %102 = load i32, i32* %4, align 4
  %103 = sub nsw i32 %102, 1
  %104 = icmp slt i32 %101, %103
  br i1 %104, label %105, label %138

105:                                              ; preds = %100
  %106 = load i32, i32* %5, align 4
  %107 = sext i32 %106 to i64
  %108 = getelementptr inbounds [310 x i32], [310 x i32]* %7, i64 0, i64 %107
  %109 = load i32, i32* %108, align 4
  %110 = load i32, i32* %5, align 4
  %111 = add nsw i32 %110, 1
  %112 = sext i32 %111 to i64
  %113 = getelementptr inbounds [310 x i32], [310 x i32]* %7, i64 0, i64 %112
  %114 = load i32, i32* %113, align 4
  %115 = icmp sgt i32 %109, %114
  br i1 %115, label %116, label %134

116:                                              ; preds = %105
  %117 = load i32, i32* %5, align 4
  %118 = sext i32 %117 to i64
  %119 = getelementptr inbounds [310 x i32], [310 x i32]* %7, i64 0, i64 %118
  %120 = load i32, i32* %119, align 4
  store i32 %120, i32* %12, align 4
  %121 = load i32, i32* %5, align 4
  %122 = add nsw i32 %121, 1
  %123 = sext i32 %122 to i64
  %124 = getelementptr inbounds [310 x i32], [310 x i32]* %7, i64 0, i64 %123
  %125 = load i32, i32* %124, align 4
  %126 = load i32, i32* %5, align 4
  %127 = sext i32 %126 to i64
  %128 = getelementptr inbounds [310 x i32], [310 x i32]* %7, i64 0, i64 %127
  store i32 %125, i32* %128, align 4
  %129 = load i32, i32* %12, align 4
  %130 = load i32, i32* %5, align 4
  %131 = add nsw i32 %130, 1
  %132 = sext i32 %131 to i64
  %133 = getelementptr inbounds [310 x i32], [310 x i32]* %7, i64 0, i64 %132
  store i32 %129, i32* %133, align 4
  br label %134

134:                                              ; preds = %116, %105
  br label %135

135:                                              ; preds = %134
  %136 = load i32, i32* %5, align 4
  %137 = add nsw i32 %136, 1
  store i32 %137, i32* %5, align 4
  br label %100

138:                                              ; preds = %100
  br label %139

139:                                              ; preds = %138
  %140 = load i32, i32* %3, align 4
  %141 = add nsw i32 %140, 1
  store i32 %141, i32* %3, align 4
  br label %94

142:                                              ; preds = %94
  %143 = getelementptr inbounds [310 x i32], [310 x i32]* %7, i64 0, i64 0
  %144 = load i32, i32* %143, align 16
  %145 = call i32 (i8*, ...) @printf(i8* getelementptr inbounds ([3 x i8], [3 x i8]* @.str, i64 0, i64 0), i32 %144)
  store i32 1, i32* %3, align 4
  br label %146

146:                                              ; preds = %156, %142
  %147 = load i32, i32* %3, align 4
  %148 = load i32, i32* %4, align 4
  %149 = icmp slt i32 %147, %148
  br i1 %149, label %150, label %159

150:                                              ; preds = %146
  %151 = load i32, i32* %3, align 4
  %152 = sext i32 %151 to i64
  %153 = getelementptr inbounds [310 x i32], [310 x i32]* %7, i64 0, i64 %152
  %154 = load i32, i32* %153, align 4
  %155 = call i32 (i8*, ...) @printf(i8* getelementptr inbounds ([4 x i8], [4 x i8]* @.str.1, i64 0, i64 0), i32 %154)
  br label %156

156:                                              ; preds = %150
  %157 = load i32, i32* %3, align 4
  %158 = add nsw i32 %157, 1
  store i32 %158, i32* %3, align 4
  br label %146

159:                                              ; preds = %146
  ret i32 0
}

; Function Attrs: argmemonly nounwind willreturn
declare void @llvm.memset.p0i8.i64(i8* nocapture writeonly, i8, i64, i1 immarg) #1

declare dso_local i32 @__isoc99_scanf(i8*, ...) #2

; Function Attrs: nounwind readnone speculatable willreturn
declare double @llvm.fabs.f64(double) #3

declare dso_local i32 @printf(i8*, ...) #2


!llvm.module.flags = !{!0}
!llvm.ident = !{!1}

!0 = !{i32 1, !"wchar_size", i32 4}
!1 = !{!"clang version 10.0.0-4ubuntu1 "}
